; Function Attrs: mustprogress nounwind uwtable
define dso_local void @_ZN5clang14EmitLLVMActionC2EPN4llvm11LLVMContextE(ptr noundef nonnull align 8 dereferenceable(224) %0, ptr noundef %1) unnamed_addr #0 align 2 {
  tail call void @_ZN5clang14FrontendActionC2Ev(ptr noundef nonnull align 8 dereferenceable(104) %0) #23
  store ptr getelementptr inbounds inrange(-16, 136) (i8, ptr @_ZTVN5clang13CodeGenActionE, i64 16), ptr %0, align 8
  %3 = getelementptr inbounds nuw i8, ptr %0, i64 104
  store i32 2, ptr %3, align 8
  %4 = getelementptr inbounds nuw i8, ptr %0, i64 112
  store ptr null, ptr %4, align 8
  %5 = getelementptr inbounds nuw i8, ptr %0, i64 120
  %6 = getelementptr inbounds i8, ptr %0, i64 136
  tail call void @_ZN4llvm15SmallVectorBaseIjEC2EPvm(ptr noundef nonnull align 8 dereferenceable(16) %5, ptr noundef nonnull %6, i64 noundef 4) #23
  %.not.i = icmp eq ptr %1, null
  br i1 %.not.i, label %7, label %_ZN5clang13CodeGenActionC2EjPN4llvm11LLVMContextE.exit

7:                                                ; preds = %2
  %8 = tail call noalias noundef nonnull dereferenceable(8) ptr @_Znwm(i64 noundef 8) #25
  tail call void @_ZN4llvm11LLVMContextC1Ev(ptr noundef nonnull align 8 dereferenceable(8) %8) #23
  br label %_ZN5clang13CodeGenActionC2EjPN4llvm11LLVMContextE.exit

_ZN5clang13CodeGenActionC2EjPN4llvm11LLVMContextE.exit: ; preds = %2, %7
  %9 = phi ptr [ %8, %7 ], [ %1, %2 ]
  %10 = getelementptr inbounds nuw i8, ptr %0, i64 200
  store ptr %9, ptr %10, align 8
  %11 = getelementptr inbounds nuw i8, ptr %0, i64 208
  %12 = zext i1 %.not.i to i8
  store i8 %12, ptr %11, align 8
  %13 = getelementptr inbounds nuw i8, ptr %0, i64 216
  store ptr null, ptr %13, align 8
  store ptr getelementptr inbounds inrange(-16, 144) (i8, ptr @_ZTVN5clang14EmitLLVMActionE, i64 16), ptr %0, align 8
  ret void
}